target datalayout = "e-m:e-p270:32:32-p271:32:32-p272:64:64-i64:64-i128:128-f80:128-n8:16:32:64-S128"
target triple = "x86_64-pc-linux-gnu"

%struct.lv_color_hsv_t = type { i16, i8, i8 }

; Function Attrs: nounwind uwtable
define i32 @lv_color_rgb_to_hsv(i8 noundef zeroext %0, i8 noundef zeroext %1, i8 noundef zeroext %2) #0 {
  %4 = alloca %struct.lv_color_hsv_t, align 2
  %5 = alloca i8, align 1
  %6 = alloca i8, align 1
  %7 = alloca i8, align 1
  %8 = alloca i16, align 2
  %9 = alloca i16, align 2
  %10 = alloca i16, align 2
  %11 = alloca i16, align 2
  %12 = alloca i16, align 2
  %13 = alloca i32, align 4
  %14 = alloca i32, align 4
  %15 = alloca i32, align 4
  store i8 %0, ptr %5, align 1, !tbaa !7
  store i8 %1, ptr %6, align 1, !tbaa !7
  store i8 %2, ptr %7, align 1, !tbaa !7
  call void @llvm.lifetime.start.p0(i64 2, ptr %8) #5
  %16 = load i8, ptr %5, align 1, !tbaa !7
  %17 = zext i8 %16 to i32
  %18 = shl i32 %17, 10
  %19 = udiv i32 %18, 255
  %20 = trunc i32 %19 to i16
  store i16 %20, ptr %8, align 2, !tbaa !20
  call void @llvm.lifetime.start.p0(i64 2, ptr %9) #5
  %21 = load i8, ptr %6, align 1, !tbaa !7
  %22 = zext i8 %21 to i32
  %23 = shl i32 %22, 10
  %24 = udiv i32 %23, 255
  %25 = trunc i32 %24 to i16
  store i16 %25, ptr %9, align 2, !tbaa !20
  call void @llvm.lifetime.start.p0(i64 2, ptr %10) #5
  %26 = load i8, ptr %7, align 1, !tbaa !7
  %27 = zext i8 %26 to i32
  %28 = shl i32 %27, 10
  %29 = udiv i32 %28, 255
  %30 = trunc i32 %29 to i16
  store i16 %30, ptr %10, align 2, !tbaa !20
  call void @llvm.lifetime.start.p0(i64 2, ptr %11) #5
  %31 = load i16, ptr %8, align 2, !tbaa !20
  %32 = zext i16 %31 to i32
  %33 = load i16, ptr %9, align 2, !tbaa !20
  %34 = zext i16 %33 to i32
  %35 = icmp slt i32 %32, %34
  br i1 %35, label %36, label %50

36:                                               ; preds = %3
  %37 = load i16, ptr %8, align 2, !tbaa !20
  %38 = zext i16 %37 to i32
  %39 = load i16, ptr %10, align 2, !tbaa !20
  %40 = zext i16 %39 to i32
  %41 = icmp slt i32 %38, %40
  br i1 %41, label %42, label %45

42:                                               ; preds = %36
  %43 = load i16, ptr %8, align 2, !tbaa !20
  %44 = zext i16 %43 to i32
  br label %48

45:                                               ; preds = %36
  %46 = load i16, ptr %10, align 2, !tbaa !20
  %47 = zext i16 %46 to i32
  br label %48

48:                                               ; preds = %45, %42
  %49 = phi i32 [ %44, %42 ], [ %47, %45 ]
  br label %64

50:                                               ; preds = %3
  %51 = load i16, ptr %9, align 2, !tbaa !20
  %52 = zext i16 %51 to i32
  %53 = load i16, ptr %10, align 2, !tbaa !20
  %54 = zext i16 %53 to i32
  %55 = icmp slt i32 %52, %54
  br i1 %55, label %56, label %59

56:                                               ; preds = %50
  %57 = load i16, ptr %9, align 2, !tbaa !20
  %58 = zext i16 %57 to i32
  br label %62

59:                                               ; preds = %50
  %60 = load i16, ptr %10, align 2, !tbaa !20
  %61 = zext i16 %60 to i32
  br label %62

62:                                               ; preds = %59, %56
  %63 = phi i32 [ %58, %56 ], [ %61, %59 ]
  br label %64

64:                                               ; preds = %62, %48
  %65 = phi i32 [ %49, %48 ], [ %63, %62 ]
  %66 = trunc i32 %65 to i16
  store i16 %66, ptr %11, align 2, !tbaa !20
  call void @llvm.lifetime.start.p0(i64 2, ptr %12) #5
  %67 = load i16, ptr %8, align 2, !tbaa !20
  %68 = zext i16 %67 to i32
  %69 = load i16, ptr %9, align 2, !tbaa !20
  %70 = zext i16 %69 to i32
  %71 = icmp sgt i32 %68, %70
  br i1 %71, label %72, label %86

72:                                               ; preds = %64
  %73 = load i16, ptr %8, align 2, !tbaa !20
  %74 = zext i16 %73 to i32
  %75 = load i16, ptr %10, align 2, !tbaa !20
  %76 = zext i16 %75 to i32
  %77 = icmp sgt i32 %74, %76
  br i1 %77, label %78, label %81

78:                                               ; preds = %72
  %79 = load i16, ptr %8, align 2, !tbaa !20
  %80 = zext i16 %79 to i32
  br label %84

81:                                               ; preds = %72
  %82 = load i16, ptr %10, align 2, !tbaa !20
  %83 = zext i16 %82 to i32
  br label %84

84:                                               ; preds = %81, %78
  %85 = phi i32 [ %80, %78 ], [ %83, %81 ]
  br label %100

86:                                               ; preds = %64
  %87 = load i16, ptr %9, align 2, !tbaa !20
  %88 = zext i16 %87 to i32
  %89 = load i16, ptr %10, align 2, !tbaa !20
  %90 = zext i16 %89 to i32
  %91 = icmp sgt i32 %88, %90
  br i1 %91, label %92, label %95

92:                                               ; preds = %86
  %93 = load i16, ptr %9, align 2, !tbaa !20
  %94 = zext i16 %93 to i32
  br label %98

95:                                               ; preds = %86
  %96 = load i16, ptr %10, align 2, !tbaa !20
  %97 = zext i16 %96 to i32
  br label %98

98:                                               ; preds = %95, %92
  %99 = phi i32 [ %94, %92 ], [ %97, %95 ]
  br label %100

100:                                              ; preds = %98, %84
  %101 = phi i32 [ %85, %84 ], [ %99, %98 ]
  %102 = trunc i32 %101 to i16
  store i16 %102, ptr %12, align 2, !tbaa !20
  %103 = load i16, ptr %12, align 2, !tbaa !20
  %104 = zext i16 %103 to i32
  %105 = mul nsw i32 100, %104
  %106 = ashr i32 %105, 10
  %107 = trunc i32 %106 to i8
  %108 = getelementptr inbounds nuw %struct.lv_color_hsv_t, ptr %4, i32 0, i32 2
  store i8 %107, ptr %108, align 1, !tbaa !22
  call void @llvm.lifetime.start.p0(i64 4, ptr %13) #5
  %109 = load i16, ptr %12, align 2, !tbaa !20
  %110 = zext i16 %109 to i32
  %111 = load i16, ptr %11, align 2, !tbaa !20
  %112 = zext i16 %111 to i32
  %113 = sub nsw i32 %110, %112
  store i32 %113, ptr %13, align 4, !tbaa !9
  %114 = load i32, ptr %13, align 4, !tbaa !9
  %115 = icmp slt i32 %114, 3
  br i1 %115, label %116, label %119

116:                                              ; preds = %100
  %117 = getelementptr inbounds nuw %struct.lv_color_hsv_t, ptr %4, i32 0, i32 0
  store i16 0, ptr %117, align 2, !tbaa !24
  %118 = getelementptr inbounds nuw %struct.lv_color_hsv_t, ptr %4, i32 0, i32 1
  store i8 0, ptr %118, align 2, !tbaa !25
  store i32 1, ptr %14, align 4
  br label %204

119:                                              ; preds = %100
  %120 = load i32, ptr %13, align 4, !tbaa !9
  %121 = mul nsw i32 100, %120
  %122 = load i16, ptr %12, align 2, !tbaa !20
  %123 = zext i16 %122 to i32
  %124 = sdiv i32 %121, %123
  %125 = trunc i32 %124 to i8
  %126 = getelementptr inbounds nuw %struct.lv_color_hsv_t, ptr %4, i32 0, i32 1
  store i8 %125, ptr %126, align 2, !tbaa !25
  %127 = getelementptr inbounds nuw %struct.lv_color_hsv_t, ptr %4, i32 0, i32 1
  %128 = load i8, ptr %127, align 2, !tbaa !25
  %129 = zext i8 %128 to i32
  %130 = icmp slt i32 %129, 3
  br i1 %130, label %131, label %133

131:                                              ; preds = %119
  %132 = getelementptr inbounds nuw %struct.lv_color_hsv_t, ptr %4, i32 0, i32 0
  store i16 0, ptr %132, align 2, !tbaa !24
  store i32 1, ptr %14, align 4
  br label %204

133:                                              ; preds = %119
  call void @llvm.lifetime.start.p0(i64 4, ptr %15) #5
  %134 = load i16, ptr %12, align 2, !tbaa !20
  %135 = zext i16 %134 to i32
  %136 = load i16, ptr %8, align 2, !tbaa !20
  %137 = zext i16 %136 to i32
  %138 = icmp eq i32 %135, %137
  br i1 %138, label %139, label %155

139:                                              ; preds = %133
  %140 = load i16, ptr %9, align 2, !tbaa !20
  %141 = zext i16 %140 to i32
  %142 = load i16, ptr %10, align 2, !tbaa !20
  %143 = zext i16 %142 to i32
  %144 = sub nsw i32 %141, %143
  %145 = shl i32 %144, 10
  %146 = load i32, ptr %13, align 4, !tbaa !9
  %147 = sdiv i32 %145, %146
  %148 = load i16, ptr %9, align 2, !tbaa !20
  %149 = zext i16 %148 to i32
  %150 = load i16, ptr %10, align 2, !tbaa !20
  %151 = zext i16 %150 to i32
  %152 = icmp slt i32 %149, %151
  %153 = select i1 %152, i32 6144, i32 0
  %154 = add nsw i32 %147, %153
  store i32 %154, ptr %15, align 4, !tbaa !9
  br label %190

155:                                              ; preds = %133
  %156 = load i16, ptr %12, align 2, !tbaa !20
  %157 = zext i16 %156 to i32
  %158 = load i16, ptr %9, align 2, !tbaa !20
  %159 = zext i16 %158 to i32
  %160 = icmp eq i32 %157, %159
  br i1 %160, label %161, label %171

161:                                              ; preds = %155
  %162 = load i16, ptr %10, align 2, !tbaa !20
  %163 = zext i16 %162 to i32
  %164 = load i16, ptr %8, align 2, !tbaa !20
  %165 = zext i16 %164 to i32
  %166 = sub nsw i32 %163, %165
  %167 = shl i32 %166, 10
  %168 = load i32, ptr %13, align 4, !tbaa !9
  %169 = sdiv i32 %167, %168
  %170 = add nsw i32 %169, 2048
  store i32 %170, ptr %15, align 4, !tbaa !9
  br label %189

171:                                              ; preds = %155
  %172 = load i16, ptr %12, align 2, !tbaa !20
  %173 = zext i16 %172 to i32
  %174 = load i16, ptr %10, align 2, !tbaa !20
  %175 = zext i16 %174 to i32
  %176 = icmp eq i32 %173, %175
  br i1 %176, label %177, label %187

177:                                              ; preds = %171
  %178 = load i16, ptr %8, align 2, !tbaa !20
  %179 = zext i16 %178 to i32
  %180 = load i16, ptr %9, align 2, !tbaa !20
  %181 = zext i16 %180 to i32
  %182 = sub nsw i32 %179, %181
  %183 = shl i32 %182, 10
  %184 = load i32, ptr %13, align 4, !tbaa !9
  %185 = sdiv i32 %183, %184
  %186 = add nsw i32 %185, 4096
  store i32 %186, ptr %15, align 4, !tbaa !9
  br label %188

187:                                              ; preds = %171
  store i32 0, ptr %15, align 4, !tbaa !9
  br label %188

188:                                              ; preds = %187, %177
  br label %189

189:                                              ; preds = %188, %161
  br label %190

190:                                              ; preds = %189, %139
  %191 = load i32, ptr %15, align 4, !tbaa !9
  %192 = mul nsw i32 %191, 60
  store i32 %192, ptr %15, align 4, !tbaa !9
  %193 = load i32, ptr %15, align 4, !tbaa !9
  %194 = ashr i32 %193, 10
  store i32 %194, ptr %15, align 4, !tbaa !9
  %195 = load i32, ptr %15, align 4, !tbaa !9
  %196 = icmp slt i32 %195, 0
  br i1 %196, label %197, label %200

197:                                              ; preds = %190
  %198 = load i32, ptr %15, align 4, !tbaa !9
  %199 = add nsw i32 %198, 360
  store i32 %199, ptr %15, align 4, !tbaa !9
  br label %200

200:                                              ; preds = %197, %190
  %201 = load i32, ptr %15, align 4, !tbaa !9
  %202 = trunc i32 %201 to i16
  %203 = getelementptr inbounds nuw %struct.lv_color_hsv_t, ptr %4, i32 0, i32 0
  store i16 %202, ptr %203, align 2, !tbaa !24
  store i32 1, ptr %14, align 4
  call void @llvm.lifetime.end.p0(i64 4, ptr %15) #5
  br label %204

204:                                              ; preds = %200, %131, %116
  call void @llvm.lifetime.end.p0(i64 4, ptr %13) #5
  call void @llvm.lifetime.end.p0(i64 2, ptr %12) #5
  call void @llvm.lifetime.end.p0(i64 2, ptr %11) #5
  call void @llvm.lifetime.end.p0(i64 2, ptr %10) #5
  call void @llvm.lifetime.end.p0(i64 2, ptr %9) #5
  call void @llvm.lifetime.end.p0(i64 2, ptr %8) #5
  %205 = load i32, ptr %4, align 2
  ret i32 %205
}