; Function Attrs: mustprogress nofree norecurse nosync nounwind willreturn memory(none) uwtable
define range(i32 0, -2147483648) i32 @lv_color_rgb_to_hsv(i8 noundef zeroext %0, i8 noundef zeroext %1, i8 noundef zeroext %2) local_unnamed_addr #1 {
  %4 = zext i8 %0 to i32
  %5 = shl nuw nsw i32 %4, 10
  %6 = udiv i32 %5, 255
  %7 = zext i8 %1 to i32
  %8 = shl nuw nsw i32 %7, 10
  %9 = udiv i32 %8, 255
  %10 = zext i8 %2 to i32
  %11 = shl nuw nsw i32 %10, 10
  %12 = udiv i32 %11, 255
  %. = tail call i32 @llvm.umin.i32(i32 %6, i32 %9)
  %13 = tail call i32 @llvm.umin.i32(i32 %., i32 %12)
  %.sink60 = tail call i32 @llvm.umax.i32(i32 %6, i32 %9)
  %14 = tail call i32 @llvm.umax.i32(i32 %.sink60, i32 %12)
  %15 = sub nsw i32 %14, %13
  %16 = icmp slt i32 %15, 3
  br i1 %16, label %50, label %17

17:                                               ; preds = %3
  %18 = mul nuw nsw i32 %15, 100
  %19 = udiv i32 %18, %14
  %20 = and i32 %19, 255
  %21 = icmp samesign ult i32 %20, 3
  br i1 %21, label %50, label %22

22:                                               ; preds = %17
  %23 = icmp eq i32 %14, %6
  br i1 %23, label %24, label %31

24:                                               ; preds = %22
  %25 = sub nsw i32 %9, %12
  %26 = shl nsw i32 %25, 10
  %27 = sdiv i32 %26, %15
  %28 = icmp samesign ult i32 %9, %12
  %29 = select i1 %28, i32 6144, i32 0
  %30 = add nsw i32 %27, %29
  br label %44

31:                                               ; preds = %22
  %32 = icmp eq i32 %14, %9
  br i1 %32, label %33, label %38

33:                                               ; preds = %31
  %34 = sub nsw i32 %12, %6
  %35 = shl nsw i32 %34, 10
  %36 = sdiv i32 %35, %15
  %37 = add nsw i32 %36, 2048
  br label %44

38:                                               ; preds = %31
  %.not = icmp samesign ult i32 %12, %.sink60
  br i1 %.not, label %44, label %39

39:                                               ; preds = %38
  %40 = sub nsw i32 %6, %9
  %41 = shl nsw i32 %40, 10
  %42 = sdiv i32 %41, %15
  %43 = add nsw i32 %42, 4096
  br label %44

44:                                               ; preds = %38, %33, %39, %24
  %.0 = phi i32 [ %30, %24 ], [ %37, %33 ], [ %43, %39 ], [ 0, %38 ]
  %45 = mul nsw i32 %.0, 60
  %46 = ashr i32 %45, 10
  %47 = icmp slt i32 %46, 0
  %48 = add nsw i32 %46, 360
  %spec.select = select i1 %47, i32 %48, i32 %46
  %49 = and i32 %spec.select, 65535
  br label %50

50:                                               ; preds = %17, %3, %44
  %.sroa.0.0 = phi i32 [ %49, %44 ], [ 0, %3 ], [ 0, %17 ]
  %.sroa.4.0 = phi i32 [ %19, %44 ], [ 0, %3 ], [ %19, %17 ]
  %51 = mul nuw nsw i32 %14, 1638400
  %.sroa.7.0.insert.ext = and i32 %51, 2130706432
  %.sroa.4.0.insert.ext = shl i32 %.sroa.4.0, 16
  %.sroa.4.0.insert.shift = and i32 %.sroa.4.0.insert.ext, 16711680
  %.sroa.4.0.insert.insert = or disjoint i32 %.sroa.0.0, %.sroa.7.0.insert.ext
  %.sroa.0.0.insert.insert = or disjoint i32 %.sroa.4.0.insert.insert, %.sroa.4.0.insert.shift
  ret i32 %.sroa.0.0.insert.insert
}